target datalayout = "e-m:e-p270:32:32-p271:32:32-p272:64:64-i64:64-i128:128-f80:128-n8:16:32:64-S128"
target triple = "x86_64-pc-linux-gnu"

%"class.boost::core::basic_string_view" = type { ptr, i64 }
%"struct.boost::urls::detail::url_impl" = type <{ ptr, [8 x i64], [7 x i64], i64, i64, [16 x i8], i16, [2 x i8], i32, i16, i8, [5 x i8] }>
%"class.boost::urls::grammar::string_view_base" = type { %"class.boost::core::basic_string_view" }
%"class.boost::urls::pct_string_view" = type { %"class.boost::urls::grammar::string_view_base", i64 }

; Function Attrs: mustprogress nounwind uwtable
define noundef i64 @_ZNK5boost4urls6detail8url_impl6offsetEi(ptr noundef nonnull align 8 dereferenceable(171) %0, i32 noundef %1) #1 align 2 {
  %3 = alloca ptr, align 8
  %4 = alloca i32, align 4
  store ptr %0, ptr %3, align 8, !tbaa !3
  store i32 %1, ptr %4, align 4, !tbaa !16
  %5 = load ptr, ptr %3, align 8
  %6 = load i32, ptr %4, align 4, !tbaa !16
  %7 = icmp eq i32 %6, -1
  br i1 %7, label %8, label %9

8:                                                ; preds = %2
  br label %15

9:                                                ; preds = %2
  %10 = getelementptr inbounds nuw %"struct.boost::urls::detail::url_impl", ptr %5, i32 0, i32 1
  %11 = load i32, ptr %4, align 4, !tbaa !16
  %12 = sext i32 %11 to i64
  %13 = getelementptr inbounds [8 x i64], ptr %10, i64 0, i64 %12
  %14 = load i64, ptr %13, align 8, !tbaa !8
  br label %15

15:                                               ; preds = %9, %8
  %16 = phi i64 [ 0, %8 ], [ %14, %9 ]
  ret i64 %16
}

; Function Attrs: mustprogress nounwind uwtable
define linkonce_odr hidden noundef nonnull align 1 dereferenceable(1) ptr @_ZNK5boost4core17basic_string_viewIcEixEm(ptr noundef nonnull align 8 dereferenceable(16) %0, i64 noundef %1) #1 comdat align 2 {
  %3 = alloca ptr, align 8
  %4 = alloca i64, align 8
  store ptr %0, ptr %3, align 8, !tbaa !3
  store i64 %1, ptr %4, align 8, !tbaa !8
  %5 = load ptr, ptr %3, align 8
  %6 = getelementptr inbounds nuw %"class.boost::core::basic_string_view", ptr %5, i32 0, i32 0
  %7 = load ptr, ptr %6, align 8, !tbaa !37
  %8 = load i64, ptr %4, align 8, !tbaa !8
  %9 = getelementptr inbounds nuw i8, ptr %7, i64 %8
  ret ptr %9
}

; Function Attrs: mustprogress nounwind uwtable
define noundef i64 @_ZNK5boost4urls6detail8url_impl3lenEi(ptr noundef nonnull align 8 dereferenceable(171) %0, i32 noundef %1) #1 align 2 {
  %3 = alloca ptr, align 8
  %4 = alloca i32, align 4
  store ptr %0, ptr %3, align 8, !tbaa !3
  store i32 %1, ptr %4, align 4, !tbaa !16
  %5 = load ptr, ptr %3, align 8
  %6 = load i32, ptr %4, align 4, !tbaa !16
  %7 = icmp eq i32 %6, 7
  br i1 %7, label %8, label %9

8:                                                ; preds = %2
  br label %16

9:                                                ; preds = %2
  %10 = load i32, ptr %4, align 4, !tbaa !16
  %11 = add nsw i32 %10, 1
  %12 = call noundef i64 @_ZNK5boost4urls6detail8url_impl6offsetEi(ptr noundef nonnull align 8 dereferenceable(171) %5, i32 noundef %11) #5
  %13 = load i32, ptr %4, align 4, !tbaa !16
  %14 = call noundef i64 @_ZNK5boost4urls6detail8url_impl6offsetEi(ptr noundef nonnull align 8 dereferenceable(171) %5, i32 noundef %13) #5
  %15 = sub i64 %12, %14
  br label %16

16:                                               ; preds = %9, %8
  %17 = phi i64 [ 0, %8 ], [ %15, %9 ]
  ret i64 %17
}

; Function Attrs: mustprogress nounwind uwtable
define linkonce_odr hidden noundef i64 @_ZNK5boost4core17basic_string_viewIcE4sizeEv(ptr noundef nonnull align 8 dereferenceable(16) %0) #1 comdat align 2 {
  %2 = alloca ptr, align 8
  store ptr %0, ptr %2, align 8, !tbaa !3
  %3 = load ptr, ptr %2, align 8
  %4 = getelementptr inbounds nuw %"class.boost::core::basic_string_view", ptr %3, i32 0, i32 1
  %5 = load i64, ptr %4, align 8, !tbaa !20
  ret i64 %5
}

; Function Attrs: inlinehint mustprogress nounwind uwtable
define linkonce_odr hidden noundef i64 @_ZN5boost4urls6detail13path_segmentsENS_4core17basic_string_viewIcEEm(ptr %0, i64 %1, i64 noundef %2) #4 comdat {
  %4 = alloca i64, align 8
  %5 = alloca %"class.boost::core::basic_string_view", align 8
  %6 = alloca i64, align 8
  %7 = getelementptr inbounds nuw { ptr, i64 }, ptr %5, i32 0, i32 0
  store ptr %0, ptr %7, align 8
  %8 = getelementptr inbounds nuw { ptr, i64 }, ptr %5, i32 0, i32 1
  store i64 %1, ptr %8, align 8
  store i64 %2, ptr %6, align 8, !tbaa !8
  %9 = call noundef i64 @_ZNK5boost4core17basic_string_viewIcE4sizeEv(ptr noundef nonnull align 8 dereferenceable(16) %5) #5
  switch i64 %9, label %40 [
    i64 0, label %10
    i64 1, label %11
    i64 2, label %18
  ]

10:                                               ; preds = %3
  store i64 0, ptr %4, align 8
  br label %76

11:                                               ; preds = %3
  %12 = call noundef nonnull align 1 dereferenceable(1) ptr @_ZNK5boost4core17basic_string_viewIcEixEm(ptr noundef nonnull align 8 dereferenceable(16) %5, i64 noundef 0) #5
  %13 = load i8, ptr %12, align 1, !tbaa !34
  %14 = sext i8 %13 to i32
  %15 = icmp eq i32 %14, 47
  br i1 %15, label %16, label %17

16:                                               ; preds = %11
  store i64 0, ptr %4, align 8
  br label %76

17:                                               ; preds = %11
  store i64 1, ptr %4, align 8
  br label %76

18:                                               ; preds = %3
  %19 = call noundef nonnull align 1 dereferenceable(1) ptr @_ZNK5boost4core17basic_string_viewIcEixEm(ptr noundef nonnull align 8 dereferenceable(16) %5, i64 noundef 0) #5
  %20 = load i8, ptr %19, align 1, !tbaa !34
  %21 = sext i8 %20 to i32
  %22 = icmp eq i32 %21, 47
  br i1 %22, label %23, label %25

23:                                               ; preds = %18
  %24 = load i64, ptr %6, align 8, !tbaa !8
  store i64 %24, ptr %4, align 8
  br label %76

25:                                               ; preds = %18
  %26 = call noundef nonnull align 1 dereferenceable(1) ptr @_ZNK5boost4core17basic_string_viewIcEixEm(ptr noundef nonnull align 8 dereferenceable(16) %5, i64 noundef 0) #5
  %27 = load i8, ptr %26, align 1, !tbaa !34
  %28 = sext i8 %27 to i32
  %29 = icmp eq i32 %28, 46
  br i1 %29, label %30, label %38

30:                                               ; preds = %25
  %31 = call noundef nonnull align 1 dereferenceable(1) ptr @_ZNK5boost4core17basic_string_viewIcEixEm(ptr noundef nonnull align 8 dereferenceable(16) %5, i64 noundef 1) #5
  %32 = load i8, ptr %31, align 1, !tbaa !34
  %33 = sext i8 %32 to i32
  %34 = icmp eq i32 %33, 47
  br i1 %34, label %35, label %38

35:                                               ; preds = %30
  %36 = load i64, ptr %6, align 8, !tbaa !8
  %37 = sub i64 %36, 1
  store i64 %37, ptr %4, align 8
  br label %76

38:                                               ; preds = %30, %25
  %39 = load i64, ptr %6, align 8, !tbaa !8
  store i64 %39, ptr %4, align 8
  br label %76

40:                                               ; preds = %3
  %41 = call noundef nonnull align 1 dereferenceable(1) ptr @_ZNK5boost4core17basic_string_viewIcEixEm(ptr noundef nonnull align 8 dereferenceable(16) %5, i64 noundef 0) #5
  %42 = load i8, ptr %41, align 1, !tbaa !34
  %43 = sext i8 %42 to i32
  %44 = icmp eq i32 %43, 47
  br i1 %44, label %45, label %60

45:                                               ; preds = %40
  %46 = call noundef nonnull align 1 dereferenceable(1) ptr @_ZNK5boost4core17basic_string_viewIcEixEm(ptr noundef nonnull align 8 dereferenceable(16) %5, i64 noundef 1) #5
  %47 = load i8, ptr %46, align 1, !tbaa !34
  %48 = sext i8 %47 to i32
  %49 = icmp eq i32 %48, 46
  br i1 %49, label %50, label %58

50:                                               ; preds = %45
  %51 = call noundef nonnull align 1 dereferenceable(1) ptr @_ZNK5boost4core17basic_string_viewIcEixEm(ptr noundef nonnull align 8 dereferenceable(16) %5, i64 noundef 2) #5
  %52 = load i8, ptr %51, align 1, !tbaa !34
  %53 = sext i8 %52 to i32
  %54 = icmp eq i32 %53, 47
  br i1 %54, label %55, label %58

55:                                               ; preds = %50
  %56 = load i64, ptr %6, align 8, !tbaa !8
  %57 = sub i64 %56, 1
  store i64 %57, ptr %4, align 8
  br label %76

58:                                               ; preds = %50, %45
  %59 = load i64, ptr %6, align 8, !tbaa !8
  store i64 %59, ptr %4, align 8
  br label %76

60:                                               ; preds = %40
  %61 = call noundef nonnull align 1 dereferenceable(1) ptr @_ZNK5boost4core17basic_string_viewIcEixEm(ptr noundef nonnull align 8 dereferenceable(16) %5, i64 noundef 0) #5
  %62 = load i8, ptr %61, align 1, !tbaa !34
  %63 = sext i8 %62 to i32
  %64 = icmp eq i32 %63, 46
  br i1 %64, label %65, label %73

65:                                               ; preds = %60
  %66 = call noundef nonnull align 1 dereferenceable(1) ptr @_ZNK5boost4core17basic_string_viewIcEixEm(ptr noundef nonnull align 8 dereferenceable(16) %5, i64 noundef 1) #5
  %67 = load i8, ptr %66, align 1, !tbaa !34
  %68 = sext i8 %67 to i32
  %69 = icmp eq i32 %68, 47
  br i1 %69, label %70, label %73

70:                                               ; preds = %65
  %71 = load i64, ptr %6, align 8, !tbaa !8
  %72 = sub i64 %71, 1
  store i64 %72, ptr %4, align 8
  br label %76

73:                                               ; preds = %65, %60
  br label %74

74:                                               ; preds = %73
  %75 = load i64, ptr %6, align 8, !tbaa !8
  store i64 %75, ptr %4, align 8
  br label %76

76:                                               ; preds = %74, %70, %58, %55, %38, %35, %23, %17, %16, %10
  %77 = load i64, ptr %4, align 8
  ret i64 %77
}

; Function Attrs: mustprogress nounwind uwtable
define linkonce_odr hidden { ptr, i64 } @_ZNK5boost4urls7grammar16string_view_basecvNS_4core17basic_string_viewIcEEEv(ptr noundef nonnull align 8 dereferenceable(16) %0) #1 comdat align 2 {
  %2 = alloca %"class.boost::core::basic_string_view", align 8
  %3 = alloca ptr, align 8
  store ptr %0, ptr %3, align 8, !tbaa !3
  %4 = load ptr, ptr %3, align 8
  %5 = getelementptr inbounds nuw %"class.boost::urls::grammar::string_view_base", ptr %4, i32 0, i32 0
  call void @llvm.memcpy.p0.p0.i64(ptr align 8 %2, ptr align 8 %5, i64 16, i1 false), !tbaa.struct !7
  %6 = load { ptr, i64 }, ptr %2, align 8
  ret { ptr, i64 } %6
}

; Function Attrs: mustprogress nounwind uwtable
define linkonce_odr hidden noundef i64 @_ZNK5boost4urls15pct_string_view12decoded_sizeEv(ptr noundef nonnull align 8 dereferenceable(24) %0) #1 comdat align 2 {
  %2 = alloca ptr, align 8
  store ptr %0, ptr %2, align 8, !tbaa !3
  %3 = load ptr, ptr %2, align 8
  %4 = getelementptr inbounds nuw %"class.boost::urls::pct_string_view", ptr %3, i32 0, i32 1
  %5 = load i64, ptr %4, align 8, !tbaa !22
  ret i64 %5
}

; Function Attrs: mustprogress nounwind uwtable
define void @_ZN5boost4urls6detail8url_impl8set_sizeEim(ptr noundef nonnull align 8 dereferenceable(171) %0, i32 noundef %1, i64 noundef %2) #1 align 2 {
  %4 = alloca ptr, align 8
  %5 = alloca i32, align 4
  %6 = alloca i64, align 8
  %7 = alloca i64, align 8
  %8 = alloca i32, align 4
  store ptr %0, ptr %4, align 8, !tbaa !3
  store i32 %1, ptr %5, align 4, !tbaa !16
  store i64 %2, ptr %6, align 8, !tbaa !8
  %9 = load ptr, ptr %4, align 8
  call void @llvm.lifetime.start.p0(i64 8, ptr %7) #5
  %10 = load i64, ptr %6, align 8, !tbaa !8
  %11 = load i32, ptr %5, align 4, !tbaa !16
  %12 = call noundef i64 @_ZNK5boost4urls6detail8url_impl3lenEi(ptr noundef nonnull align 8 dereferenceable(171) %9, i32 noundef %11) #5
  %13 = sub i64 %10, %12
  store i64 %13, ptr %7, align 8, !tbaa !8
  call void @llvm.lifetime.start.p0(i64 4, ptr %8) #5
  %14 = load i32, ptr %5, align 4, !tbaa !16
  %15 = add nsw i32 %14, 1
  store i32 %15, ptr %8, align 4, !tbaa !16
  br label %16

16:                                               ; preds = %28, %3
  %17 = load i32, ptr %8, align 4, !tbaa !16
  %18 = icmp sle i32 %17, 7
  br i1 %18, label %20, label %19

19:                                               ; preds = %16
  call void @llvm.lifetime.end.p0(i64 4, ptr %8) #5
  br label %31

20:                                               ; preds = %16
  %21 = load i64, ptr %7, align 8, !tbaa !8
  %22 = getelementptr inbounds nuw %"struct.boost::urls::detail::url_impl", ptr %9, i32 0, i32 1
  %23 = load i32, ptr %8, align 4, !tbaa !16
  %24 = sext i32 %23 to i64
  %25 = getelementptr inbounds [8 x i64], ptr %22, i64 0, i64 %24
  %26 = load i64, ptr %25, align 8, !tbaa !8
  %27 = add i64 %26, %21
  store i64 %27, ptr %25, align 8, !tbaa !8
  br label %28

28:                                               ; preds = %20
  %29 = load i32, ptr %8, align 4, !tbaa !16
  %30 = add nsw i32 %29, 1
  store i32 %30, ptr %8, align 4, !tbaa !16
  br label %16, !llvm.loop !18

31:                                               ; preds = %19
  call void @llvm.lifetime.end.p0(i64 8, ptr %7) #5
  ret void
}

; Function Attrs: mustprogress nounwind uwtable
define linkonce_odr hidden noundef i64 @_ZNK5boost4urls7grammar16string_view_base4sizeEv(ptr noundef nonnull align 8 dereferenceable(16) %0) #1 comdat align 2 {
  %2 = alloca ptr, align 8
  store ptr %0, ptr %2, align 8, !tbaa !3
  %3 = load ptr, ptr %2, align 8
  %4 = getelementptr inbounds nuw %"class.boost::urls::grammar::string_view_base", ptr %3, i32 0, i32 0
  %5 = call noundef i64 @_ZNK5boost4core17basic_string_viewIcE4sizeEv(ptr noundef nonnull align 8 dereferenceable(16) %4) #5
  ret i64 %5
}

; Function Attrs: mustprogress nounwind uwtable
define void @_ZN5boost4urls6detail8url_impl10apply_pathENS0_15pct_string_viewEm(ptr noundef nonnull align 8 dereferenceable(171) %0, ptr noundef byval(%"class.boost::urls::pct_string_view") align 8 %1, i64 noundef %2) #1 align 2 {
  %4 = alloca ptr, align 8
  %5 = alloca i64, align 8
  %6 = alloca %"class.boost::core::basic_string_view", align 8
  store ptr %0, ptr %4, align 8, !tbaa !3
  store i64 %2, ptr %5, align 8, !tbaa !8
  %7 = load ptr, ptr %4, align 8
  %8 = call noundef i64 @_ZNK5boost4urls7grammar16string_view_base4sizeEv(ptr noundef nonnull align 8 dereferenceable(16) %1) #5
  call void @_ZN5boost4urls6detail8url_impl8set_sizeEim(ptr noundef nonnull align 8 dereferenceable(171) %7, i32 noundef 4, i64 noundef %8) #5
  %9 = call noundef i64 @_ZNK5boost4urls15pct_string_view12decoded_sizeEv(ptr noundef nonnull align 8 dereferenceable(24) %1) #5
  %10 = getelementptr inbounds nuw %"struct.boost::urls::detail::url_impl", ptr %7, i32 0, i32 2
  %11 = getelementptr inbounds [7 x i64], ptr %10, i64 0, i64 4
  store i64 %9, ptr %11, align 8, !tbaa !8
  %12 = call { ptr, i64 } @_ZNK5boost4urls7grammar16string_view_basecvNS_4core17basic_string_viewIcEEEv(ptr noundef nonnull align 8 dereferenceable(16) %1) #5
  %13 = getelementptr inbounds nuw { ptr, i64 }, ptr %6, i32 0, i32 0
  %14 = extractvalue { ptr, i64 } %12, 0
  store ptr %14, ptr %13, align 8
  %15 = getelementptr inbounds nuw { ptr, i64 }, ptr %6, i32 0, i32 1
  %16 = extractvalue { ptr, i64 } %12, 1
  store i64 %16, ptr %15, align 8
  %17 = load i64, ptr %5, align 8, !tbaa !8
  %18 = getelementptr inbounds nuw { ptr, i64 }, ptr %6, i32 0, i32 0
  %19 = load ptr, ptr %18, align 8
  %20 = getelementptr inbounds nuw { ptr, i64 }, ptr %6, i32 0, i32 1
  %21 = load i64, ptr %20, align 8
  %22 = call noundef i64 @_ZN5boost4urls6detail13path_segmentsENS_4core17basic_string_viewIcEEm(ptr %19, i64 %21, i64 noundef %17) #5
  %23 = getelementptr inbounds nuw %"struct.boost::urls::detail::url_impl", ptr %7, i32 0, i32 3
  store i64 %22, ptr %23, align 8, !tbaa !33
  ret void
}