; Function Attrs: mustprogress nofree norecurse nosync nounwind memory(read, argmem: readwrite, inaccessiblemem: none) uwtable
define void @_ZN5boost4urls6detail8url_impl10apply_pathENS0_15pct_string_viewEm(ptr nocapture noundef nonnull align 8 dereferenceable(171) %0, ptr nocapture noundef readonly byval(%"class.boost::urls::pct_string_view") align 8 %1, i64 noundef %2) local_unnamed_addr #5 align 2 {
  %4 = getelementptr inbounds nuw i8, ptr %1, i64 8
  %5 = load i64, ptr %4, align 8, !tbaa !13
  %6 = getelementptr inbounds nuw i8, ptr %0, i64 8
  %7 = getelementptr inbounds i8, ptr %0, i64 48
  %8 = load i64, ptr %7, align 8, !tbaa !13
  %9 = getelementptr inbounds i8, ptr %0, i64 40
  %10 = load i64, ptr %9, align 8, !tbaa !13
  %.neg.i = sub i64 %5, %8
  %11 = add i64 %.neg.i, %10
  br label %12

12:                                               ; preds = %12, %3
  %indvars.iv.i = phi i64 [ 4, %3 ], [ %indvars.iv.next.i, %12 ]
  %indvars.iv.next.i = add nuw nsw i64 %indvars.iv.i, 1
  %13 = getelementptr inbounds [8 x i64], ptr %6, i64 0, i64 %indvars.iv.next.i
  %14 = load i64, ptr %13, align 8, !tbaa !13
  %15 = add i64 %11, %14
  store i64 %15, ptr %13, align 8, !tbaa !13
  %exitcond.not.i = icmp eq i64 %indvars.iv.next.i, 7
  br i1 %exitcond.not.i, label %_ZN5boost4urls6detail8url_impl8set_sizeEim.exit, label %12, !llvm.loop !14

_ZN5boost4urls6detail8url_impl8set_sizeEim.exit:  ; preds = %12
  %16 = getelementptr inbounds nuw i8, ptr %1, i64 16
  %17 = load i64, ptr %16, align 8, !tbaa !18
  %18 = getelementptr inbounds i8, ptr %0, i64 104
  store i64 %17, ptr %18, align 8, !tbaa !13
  %.sroa.0.0.copyload.i = load ptr, ptr %1, align 8, !tbaa !27
  switch i64 %5, label %29 [
    i64 0, label %_ZN5boost4urls6detail13path_segmentsENS_4core17basic_string_viewIcEEm.exit
    i64 1, label %19
    i64 2, label %22
  ]

19:                                               ; preds = %_ZN5boost4urls6detail8url_impl8set_sizeEim.exit
  %20 = load i8, ptr %.sroa.0.0.copyload.i, align 1, !tbaa !28
  %21 = icmp ne i8 %20, 47
  %..i = zext i1 %21 to i64
  br label %_ZN5boost4urls6detail13path_segmentsENS_4core17basic_string_viewIcEEm.exit

22:                                               ; preds = %_ZN5boost4urls6detail8url_impl8set_sizeEim.exit
  %23 = load i8, ptr %.sroa.0.0.copyload.i, align 1, !tbaa !28
  %cond.i = icmp eq i8 %23, 46
  br i1 %cond.i, label %24, label %_ZN5boost4urls6detail13path_segmentsENS_4core17basic_string_viewIcEEm.exit

24:                                               ; preds = %22
  %25 = getelementptr inbounds nuw i8, ptr %.sroa.0.0.copyload.i, i64 1
  %26 = load i8, ptr %25, align 1, !tbaa !28
  %27 = icmp eq i8 %26, 47
  %28 = sext i1 %27 to i64
  %spec.select.i = add i64 %2, %28
  br label %_ZN5boost4urls6detail13path_segmentsENS_4core17basic_string_viewIcEEm.exit

29:                                               ; preds = %_ZN5boost4urls6detail8url_impl8set_sizeEim.exit
  %30 = load i8, ptr %.sroa.0.0.copyload.i, align 1, !tbaa !28
  switch i8 %30, label %_ZN5boost4urls6detail13path_segmentsENS_4core17basic_string_viewIcEEm.exit [
    i8 47, label %31
    i8 46, label %40
  ]

31:                                               ; preds = %29
  %32 = getelementptr inbounds nuw i8, ptr %.sroa.0.0.copyload.i, i64 1
  %33 = load i8, ptr %32, align 1, !tbaa !28
  %34 = icmp eq i8 %33, 46
  br i1 %34, label %35, label %_ZN5boost4urls6detail13path_segmentsENS_4core17basic_string_viewIcEEm.exit

35:                                               ; preds = %31
  %36 = getelementptr inbounds nuw i8, ptr %.sroa.0.0.copyload.i, i64 2
  %37 = load i8, ptr %36, align 1, !tbaa !28
  %38 = icmp eq i8 %37, 47
  %39 = sext i1 %38 to i64
  %spec.select8.i = add i64 %2, %39
  br label %_ZN5boost4urls6detail13path_segmentsENS_4core17basic_string_viewIcEEm.exit

40:                                               ; preds = %29
  %41 = getelementptr inbounds nuw i8, ptr %.sroa.0.0.copyload.i, i64 1
  %42 = load i8, ptr %41, align 1, !tbaa !28
  %43 = icmp eq i8 %42, 47
  %44 = sext i1 %43 to i64
  %spec.select9.i = add i64 %2, %44
  br label %_ZN5boost4urls6detail13path_segmentsENS_4core17basic_string_viewIcEEm.exit

_ZN5boost4urls6detail13path_segmentsENS_4core17basic_string_viewIcEEm.exit: ; preds = %_ZN5boost4urls6detail8url_impl8set_sizeEim.exit, %19, %22, %24, %29, %31, %35, %40
  %.0.i = phi i64 [ %5, %_ZN5boost4urls6detail8url_impl8set_sizeEim.exit ], [ %..i, %19 ], [ %2, %31 ], [ %spec.select.i, %24 ], [ %spec.select8.i, %35 ], [ %spec.select9.i, %40 ], [ %2, %22 ], [ %2, %29 ]
  %45 = getelementptr inbounds nuw i8, ptr %0, i64 128
  store i64 %.0.i, ptr %45, align 8, !tbaa !29
  ret void
}